target datalayout = "e-m:e-p270:32:32-p271:32:32-p272:64:64-i64:64-i128:128-f80:128-n8:16:32:64-S128"
target triple = "x86_64-pc-linux-gnu"

%class.btSdfCollisionShape = type { %class.btConcaveShape.base, ptr }
%class.btConcaveShape.base = type <{ %class.btCollisionShape, float }>
%class.btCollisionShape = type { ptr, i32, ptr, i32, i32 }
%struct.btSdfCollisionShapeInternalData = type { %class.btVector3, float, %struct.btMiniSDF }
%class.btVector3 = type { [4 x float] }
%struct.btMiniSDF = type { %struct.btAlignedBox3d, [3 x i32], %class.btVector3, %class.btVector3, i64, i64, i8, [7 x i8], %class.btAlignedObjectArray, %class.btAlignedObjectArray.0, %class.btAlignedObjectArray.2 }
%struct.btAlignedBox3d = type { %class.btVector3, %class.btVector3 }
%class.btAlignedObjectArray = type <{ [4 x i8], i32, i32, [4 x i8], ptr, i8, [7 x i8] }>
%class.btAlignedObjectArray.0 = type <{ [4 x i8], i32, i32, [4 x i8], ptr, i8, [7 x i8] }>
%class.btAlignedObjectArray.2 = type <{ [4 x i8], i32, i32, [4 x i8], ptr, i8, [7 x i8] }>

; Function Attrs: inlinehint mustprogress nounwind uwtable
define linkonce_odr dso_local void @_ZN9btVector38setValueERKfS1_S1_(ptr noundef nonnull align 4 dereferenceable(16) %0, ptr noundef nonnull align 4 dereferenceable(4) %1, ptr noundef nonnull align 4 dereferenceable(4) %2, ptr noundef nonnull align 4 dereferenceable(4) %3) #6 comdat align 2 {
  %5 = alloca ptr, align 8
  %6 = alloca ptr, align 8
  %7 = alloca ptr, align 8
  %8 = alloca ptr, align 8
  store ptr %0, ptr %5, align 8, !tbaa !50
  store ptr %1, ptr %6, align 8, !tbaa !53
  store ptr %2, ptr %7, align 8, !tbaa !53
  store ptr %3, ptr %8, align 8, !tbaa !53
  %9 = load ptr, ptr %5, align 8
  %10 = load ptr, ptr %6, align 8, !tbaa !53
  %11 = load float, ptr %10, align 4, !tbaa !32
  %12 = getelementptr inbounds nuw %class.btVector3, ptr %9, i32 0, i32 0
  %13 = getelementptr inbounds [4 x float], ptr %12, i64 0, i64 0
  store float %11, ptr %13, align 4, !tbaa !32
  %14 = load ptr, ptr %7, align 8, !tbaa !53
  %15 = load float, ptr %14, align 4, !tbaa !32
  %16 = getelementptr inbounds nuw %class.btVector3, ptr %9, i32 0, i32 0
  %17 = getelementptr inbounds [4 x float], ptr %16, i64 0, i64 1
  store float %15, ptr %17, align 4, !tbaa !32
  %18 = load ptr, ptr %8, align 8, !tbaa !53
  %19 = load float, ptr %18, align 4, !tbaa !32
  %20 = getelementptr inbounds nuw %class.btVector3, ptr %9, i32 0, i32 0
  %21 = getelementptr inbounds [4 x float], ptr %20, i64 0, i64 2
  store float %19, ptr %21, align 4, !tbaa !32
  %22 = getelementptr inbounds nuw %class.btVector3, ptr %9, i32 0, i32 0
  %23 = getelementptr inbounds [4 x float], ptr %22, i64 0, i64 3
  store float 0.000000e+00, ptr %23, align 4, !tbaa !32
  ret void
}

; Function Attrs: inlinehint mustprogress nounwind uwtable
define linkonce_odr dso_local noundef ptr @_ZN9btVector3cvPfEv(ptr noundef nonnull align 4 dereferenceable(16) %0) #6 comdat align 2 {
  %2 = alloca ptr, align 8
  store ptr %0, ptr %2, align 8, !tbaa !50
  %3 = load ptr, ptr %2, align 8
  %4 = getelementptr inbounds nuw %class.btVector3, ptr %3, i32 0, i32 0
  %5 = getelementptr inbounds [4 x float], ptr %4, i64 0, i64 0
  ret ptr %5
}

; Function Attrs: inlinehint mustprogress nounwind uwtable
define linkonce_odr dso_local void @_ZN9btVector3C2Ev(ptr noundef nonnull align 4 dereferenceable(16) %0) unnamed_addr #6 comdat align 2 {
  %2 = alloca ptr, align 8
  store ptr %0, ptr %2, align 8, !tbaa !50
  ret void
}

; Function Attrs: mustprogress uwtable
define dso_local noundef zeroext i1 @_ZN19btSdfCollisionShape10queryPointERK9btVector3RfRS0_(ptr noundef nonnull align 8 dereferenceable(48) %0, ptr noundef nonnull align 4 dereferenceable(16) %1, ptr noundef nonnull align 4 dereferenceable(4) %2, ptr noundef nonnull align 4 dereferenceable(16) %3) #2 align 2 {
  %5 = alloca ptr, align 8
  %6 = alloca ptr, align 8
  %7 = alloca ptr, align 8
  %8 = alloca ptr, align 8
  %9 = alloca i32, align 4
  %10 = alloca %class.btVector3, align 4
  %11 = alloca double, align 8
  %12 = alloca i8, align 1
  store ptr %0, ptr %5, align 8, !tbaa !12
  store ptr %1, ptr %6, align 8, !tbaa !50
  store ptr %2, ptr %7, align 8, !tbaa !53
  store ptr %3, ptr %8, align 8, !tbaa !50
  %13 = load ptr, ptr %5, align 8
  call void @llvm.lifetime.start.p0(i64 4, ptr %9) #12
  store i32 0, ptr %9, align 4, !tbaa !9
  call void @llvm.lifetime.start.p0(i64 16, ptr %10) #12
  call void @_ZN9btVector3C2Ev(ptr noundef nonnull align 4 dereferenceable(16) %10)
  call void @llvm.lifetime.start.p0(i64 8, ptr %11) #12
  call void @llvm.lifetime.start.p0(i64 1, ptr %12) #12
  %14 = getelementptr inbounds nuw %class.btSdfCollisionShape, ptr %13, i32 0, i32 1
  %15 = load ptr, ptr %14, align 8, !tbaa !16
  %16 = getelementptr inbounds nuw %struct.btSdfCollisionShapeInternalData, ptr %15, i32 0, i32 2
  %17 = load i32, ptr %9, align 4, !tbaa !9
  %18 = load ptr, ptr %6, align 8, !tbaa !50
  %19 = call noundef zeroext i1 @_ZNK9btMiniSDF11interpolateEjRdRK9btVector3PS1_(ptr noundef nonnull align 8 dereferenceable(200) %16, i32 noundef %17, ptr noundef nonnull align 8 dereferenceable(8) %11, ptr noundef nonnull align 4 dereferenceable(16) %18, ptr noundef %10)
  %20 = zext i1 %19 to i8
  store i8 %20, ptr %12, align 1, !tbaa !22
  %21 = load i8, ptr %12, align 1, !tbaa !22, !range !24, !noundef !25
  %22 = trunc i8 %21 to i1
  br i1 %22, label %23, label %34

23:                                               ; preds = %4
  %24 = load ptr, ptr %8, align 8, !tbaa !50
  %25 = call noundef ptr @_ZN9btVector3cvPfEv(ptr noundef nonnull align 4 dereferenceable(16) %10)
  %26 = getelementptr inbounds float, ptr %25, i64 0
  %27 = call noundef ptr @_ZN9btVector3cvPfEv(ptr noundef nonnull align 4 dereferenceable(16) %10)
  %28 = getelementptr inbounds float, ptr %27, i64 1
  %29 = call noundef ptr @_ZN9btVector3cvPfEv(ptr noundef nonnull align 4 dereferenceable(16) %10)
  %30 = getelementptr inbounds float, ptr %29, i64 2
  call void @_ZN9btVector38setValueERKfS1_S1_(ptr noundef nonnull align 4 dereferenceable(16) %24, ptr noundef nonnull align 4 dereferenceable(4) %26, ptr noundef nonnull align 4 dereferenceable(4) %28, ptr noundef nonnull align 4 dereferenceable(4) %30)
  %31 = load double, ptr %11, align 8, !tbaa !57
  %32 = fptrunc double %31 to float
  %33 = load ptr, ptr %7, align 8, !tbaa !53
  store float %32, ptr %33, align 4, !tbaa !32
  br label %34

34:                                               ; preds = %23, %4
  %35 = load i8, ptr %12, align 1, !tbaa !22, !range !24, !noundef !25
  %36 = trunc i8 %35 to i1
  call void @llvm.lifetime.end.p0(i64 1, ptr %12) #12
  call void @llvm.lifetime.end.p0(i64 8, ptr %11) #12
  call void @llvm.lifetime.end.p0(i64 16, ptr %10) #12
  call void @llvm.lifetime.end.p0(i64 4, ptr %9) #12
  ret i1 %36
}