; Function Attrs: mustprogress uwtable
define dso_local noundef zeroext i1 @_ZN19btSdfCollisionShape10queryPointERK9btVector3RfRS0_(ptr noundef nonnull readonly align 8 captures(none) dereferenceable(48) %0, ptr noundef nonnull align 4 dereferenceable(16) %1, ptr noundef nonnull writeonly align 4 captures(none) dereferenceable(4) %2, ptr noundef nonnull writeonly align 4 captures(none) dereferenceable(16) %3) local_unnamed_addr #0 align 2 {
  %5 = alloca %class.btVector3, align 4
  %6 = alloca double, align 8
  call void @llvm.lifetime.start.p0(i64 16, ptr nonnull %5) #18
  call void @llvm.lifetime.start.p0(i64 8, ptr nonnull %6) #18
  %7 = getelementptr inbounds nuw i8, ptr %0, i64 40
  %8 = load ptr, ptr %7, align 8, !tbaa !4
  %9 = getelementptr inbounds nuw i8, ptr %8, i64 24
  %10 = call noundef zeroext i1 @_ZNK9btMiniSDF11interpolateEjRdRK9btVector3PS1_(ptr noundef nonnull align 8 dereferenceable(200) %9, i32 noundef 0, ptr noundef nonnull align 8 dereferenceable(8) %6, ptr noundef nonnull align 4 dereferenceable(16) %1, ptr noundef nonnull %5)
  br i1 %10, label %11, label %22

11:                                               ; preds = %4
  %12 = getelementptr inbounds nuw i8, ptr %5, i64 4
  %13 = getelementptr inbounds nuw i8, ptr %5, i64 8
  %14 = load float, ptr %5, align 4, !tbaa !17
  store float %14, ptr %3, align 4, !tbaa !17
  %15 = load float, ptr %12, align 4, !tbaa !17
  %16 = getelementptr inbounds nuw i8, ptr %3, i64 4
  store float %15, ptr %16, align 4, !tbaa !17
  %17 = load float, ptr %13, align 4, !tbaa !17
  %18 = getelementptr inbounds nuw i8, ptr %3, i64 8
  store float %17, ptr %18, align 4, !tbaa !17
  %19 = getelementptr inbounds nuw i8, ptr %3, i64 12
  store float 0.000000e+00, ptr %19, align 4, !tbaa !17
  %20 = load double, ptr %6, align 8, !tbaa !52
  %21 = fptrunc double %20 to float
  store float %21, ptr %2, align 4, !tbaa !17
  br label %22

22:                                               ; preds = %11, %4
  call void @llvm.lifetime.end.p0(i64 8, ptr nonnull %6) #18
  call void @llvm.lifetime.end.p0(i64 16, ptr nonnull %5) #18
  ret i1 %10
}